target datalayout = "e-m:e-p270:32:32-p271:32:32-p272:64:64-i64:64-i128:128-f80:128-n8:16:32:64-S128"
target triple = "x86_64-pc-linux-gnu"

%struct.PJconsts = type { ptr, ptr, ptr, ptr, ptr, ptr, ptr, ptr, ptr, ptr, ptr, ptr, i32, ptr, ptr, ptr, ptr, ptr, ptr, ptr, ptr, double, double, double, double, double, double, double, double, double, double, double, double, double, double, double, double, double, double, double, double, double, double, i32, i32, i32, i32, i32, i32, i32, i32, i32, i32, i32, ptr, ptr, ptr, ptr, ptr, ptr, double, double, double, double, double, double, double, double, double, double, double, i32, [7 x double], i32, ptr, ptr, double, double, i32, [4 x i8], %"class.std::shared_ptr", i8, double, i8, %"class.std::__cxx11::basic_string", %"class.std::__cxx11::basic_string", %"class.std::__cxx11::basic_string", i8, %"class.std::vector", i32, %"class.std::vector.3", i32, i8, i8, i8, ptr }
%"class.std::shared_ptr" = type { %"class.std::__shared_ptr" }
%"class.std::__shared_ptr" = type { ptr, %"class.std::__shared_count" }
%"class.std::__shared_count" = type { ptr }
%"class.std::__cxx11::basic_string" = type { %"struct.std::__cxx11::basic_string<char>::_Alloc_hider", i64, %union.anon }
%"struct.std::__cxx11::basic_string<char>::_Alloc_hider" = type { ptr }
%union.anon = type { i64, [8 x i8] }
%"class.std::vector" = type { %"struct.std::_Vector_base" }
%"struct.std::_Vector_base" = type { %"struct.std::_Vector_base<osgeo::proj::operation::GridDescription, std::allocator<osgeo::proj::operation::GridDescription>>::_Vector_impl" }
%"struct.std::_Vector_base<osgeo::proj::operation::GridDescription, std::allocator<osgeo::proj::operation::GridDescription>>::_Vector_impl" = type { %"struct.std::_Vector_base<osgeo::proj::operation::GridDescription, std::allocator<osgeo::proj::operation::GridDescription>>::_Vector_impl_data" }
%"struct.std::_Vector_base<osgeo::proj::operation::GridDescription, std::allocator<osgeo::proj::operation::GridDescription>>::_Vector_impl_data" = type { ptr, ptr, ptr }
%"class.std::vector.3" = type { %"struct.std::_Vector_base.4" }
%"struct.std::_Vector_base.4" = type { %"struct.std::_Vector_base<PJCoordOperation, std::allocator<PJCoordOperation>>::_Vector_impl" }
%"struct.std::_Vector_base<PJCoordOperation, std::allocator<PJCoordOperation>>::_Vector_impl" = type { %"struct.std::_Vector_base<PJCoordOperation, std::allocator<PJCoordOperation>>::_Vector_impl_data" }
%"struct.std::_Vector_base<PJCoordOperation, std::allocator<PJCoordOperation>>::_Vector_impl_data" = type { ptr, ptr, ptr }
%"struct.(anonymous namespace)::pj_gnom_data" = type { double, double, i32, %struct.geod_geodesic }
%struct.geod_geodesic = type { double, double, double, double, double, double, double, double, double, [6 x double], [15 x double], [21 x double] }
%struct.PJ_LP = type { double, double }
%struct.PJ_XY = type { double, double }

; Function Attrs: mustprogress nounwind uwtable
define internal { double, double } @_ZL14gnom_s_inverse5PJ_XYP8PJconsts(double %0, double %1, ptr noundef %2) #6 {
  %4 = alloca %struct.PJ_LP, align 8
  %5 = alloca %struct.PJ_XY, align 8
  %6 = alloca ptr, align 8
  %7 = alloca ptr, align 8
  %8 = alloca double, align 8
  %9 = alloca double, align 8
  %10 = alloca double, align 8
  %11 = getelementptr inbounds nuw { double, double }, ptr %5, i32 0, i32 0
  store double %0, ptr %11, align 8
  %12 = getelementptr inbounds nuw { double, double }, ptr %5, i32 0, i32 1
  store double %1, ptr %12, align 8
  store ptr %2, ptr %6, align 8, !tbaa !3
  call void @llvm.memset.p0.i64(ptr align 8 %4, i8 0, i64 16, i1 false)
  call void @llvm.lifetime.start.p0(i64 8, ptr %7) #8
  %13 = load ptr, ptr %6, align 8, !tbaa !3
  %14 = getelementptr inbounds nuw %struct.PJconsts, ptr %13, i32 0, i32 11
  %15 = load ptr, ptr %14, align 8, !tbaa !43
  store ptr %15, ptr %7, align 8, !tbaa !41
  call void @llvm.lifetime.start.p0(i64 8, ptr %8) #8
  call void @llvm.lifetime.start.p0(i64 8, ptr %9) #8
  call void @llvm.lifetime.start.p0(i64 8, ptr %10) #8
  %16 = getelementptr inbounds nuw %struct.PJ_XY, ptr %5, i32 0, i32 0
  %17 = load double, ptr %16, align 8, !tbaa !56
  %18 = getelementptr inbounds nuw %struct.PJ_XY, ptr %5, i32 0, i32 1
  %19 = load double, ptr %18, align 8, !tbaa !58
  %20 = call double @hypot(double noundef %17, double noundef %19) #8, !tbaa !50
  store double %20, ptr %8, align 8, !tbaa !59
  %21 = load double, ptr %8, align 8, !tbaa !59
  %22 = call double @atan(double noundef %21) #8, !tbaa !50
  %23 = getelementptr inbounds nuw %struct.PJ_LP, ptr %4, i32 0, i32 1
  store double %22, ptr %23, align 8, !tbaa !60
  %24 = call double @sin(double noundef %22) #8, !tbaa !50
  store double %24, ptr %10, align 8, !tbaa !59
  %25 = load double, ptr %10, align 8, !tbaa !59
  %26 = load double, ptr %10, align 8, !tbaa !59
  %27 = fneg double %25
  %28 = call double @llvm.fmuladd.f64(double %27, double %26, double 1.000000e+00)
  %29 = call double @sqrt(double noundef %28) #8, !tbaa !50
  store double %29, ptr %9, align 8, !tbaa !59
  %30 = load double, ptr %8, align 8, !tbaa !59
  %31 = call double @llvm.fabs.f64(double %30)
  %32 = fcmp ole double %31, 1.000000e-10
  br i1 %32, label %33, label %39

33:                                               ; preds = %3
  %34 = load ptr, ptr %6, align 8, !tbaa !3
  %35 = getelementptr inbounds nuw %struct.PJconsts, ptr %34, i32 0, i32 61
  %36 = load double, ptr %35, align 8, !tbaa !45
  %37 = getelementptr inbounds nuw %struct.PJ_LP, ptr %4, i32 0, i32 1
  store double %36, ptr %37, align 8, !tbaa !60
  %38 = getelementptr inbounds nuw %struct.PJ_LP, ptr %4, i32 0, i32 0
  store double 0.000000e+00, ptr %38, align 8, !tbaa !62
  br label %148

39:                                               ; preds = %3
  %40 = load ptr, ptr %7, align 8, !tbaa !41
  %41 = getelementptr inbounds nuw %"struct.(anonymous namespace)::pj_gnom_data", ptr %40, i32 0, i32 2
  %42 = load i32, ptr %41, align 8, !tbaa !46
  switch i32 %42, label %141 [
    i32 3, label %43
    i32 2, label %96
    i32 1, label %128
    i32 0, label %132
  ]

43:                                               ; preds = %39
  %44 = load double, ptr %9, align 8, !tbaa !59
  %45 = load ptr, ptr %7, align 8, !tbaa !41
  %46 = getelementptr inbounds nuw %"struct.(anonymous namespace)::pj_gnom_data", ptr %45, i32 0, i32 0
  %47 = load double, ptr %46, align 8, !tbaa !51
  %48 = getelementptr inbounds nuw %struct.PJ_XY, ptr %5, i32 0, i32 1
  %49 = load double, ptr %48, align 8, !tbaa !58
  %50 = load double, ptr %10, align 8, !tbaa !59
  %51 = fmul double %49, %50
  %52 = load ptr, ptr %7, align 8, !tbaa !41
  %53 = getelementptr inbounds nuw %"struct.(anonymous namespace)::pj_gnom_data", ptr %52, i32 0, i32 1
  %54 = load double, ptr %53, align 8, !tbaa !52
  %55 = fmul double %51, %54
  %56 = load double, ptr %8, align 8, !tbaa !59
  %57 = fdiv double %55, %56
  %58 = call double @llvm.fmuladd.f64(double %44, double %47, double %57)
  %59 = getelementptr inbounds nuw %struct.PJ_LP, ptr %4, i32 0, i32 1
  store double %58, ptr %59, align 8, !tbaa !60
  %60 = getelementptr inbounds nuw %struct.PJ_LP, ptr %4, i32 0, i32 1
  %61 = load double, ptr %60, align 8, !tbaa !60
  %62 = call double @llvm.fabs.f64(double %61)
  %63 = fcmp oge double %62, 1.000000e+00
  br i1 %63, label %64, label %70

64:                                               ; preds = %43
  %65 = getelementptr inbounds nuw %struct.PJ_LP, ptr %4, i32 0, i32 1
  %66 = load double, ptr %65, align 8, !tbaa !60
  %67 = fcmp ogt double %66, 0.000000e+00
  %68 = select i1 %67, double 0x3FF921FB54442D18, double 0xBFF921FB54442D18
  %69 = getelementptr inbounds nuw %struct.PJ_LP, ptr %4, i32 0, i32 1
  store double %68, ptr %69, align 8, !tbaa !60
  br label %75

70:                                               ; preds = %43
  %71 = getelementptr inbounds nuw %struct.PJ_LP, ptr %4, i32 0, i32 1
  %72 = load double, ptr %71, align 8, !tbaa !60
  %73 = call double @asin(double noundef %72) #8, !tbaa !50
  %74 = getelementptr inbounds nuw %struct.PJ_LP, ptr %4, i32 0, i32 1
  store double %73, ptr %74, align 8, !tbaa !60
  br label %75

75:                                               ; preds = %70, %64
  %76 = load double, ptr %9, align 8, !tbaa !59
  %77 = load ptr, ptr %7, align 8, !tbaa !41
  %78 = getelementptr inbounds nuw %"struct.(anonymous namespace)::pj_gnom_data", ptr %77, i32 0, i32 0
  %79 = load double, ptr %78, align 8, !tbaa !51
  %80 = getelementptr inbounds nuw %struct.PJ_LP, ptr %4, i32 0, i32 1
  %81 = load double, ptr %80, align 8, !tbaa !60
  %82 = call double @sin(double noundef %81) #8, !tbaa !50
  %83 = fneg double %79
  %84 = call double @llvm.fmuladd.f64(double %83, double %82, double %76)
  %85 = load double, ptr %8, align 8, !tbaa !59
  %86 = fmul double %84, %85
  %87 = getelementptr inbounds nuw %struct.PJ_XY, ptr %5, i32 0, i32 1
  store double %86, ptr %87, align 8, !tbaa !58
  %88 = load double, ptr %10, align 8, !tbaa !59
  %89 = load ptr, ptr %7, align 8, !tbaa !41
  %90 = getelementptr inbounds nuw %"struct.(anonymous namespace)::pj_gnom_data", ptr %89, i32 0, i32 1
  %91 = load double, ptr %90, align 8, !tbaa !52
  %92 = fmul double %88, %91
  %93 = getelementptr inbounds nuw %struct.PJ_XY, ptr %5, i32 0, i32 0
  %94 = load double, ptr %93, align 8, !tbaa !56
  %95 = fmul double %94, %92
  store double %95, ptr %93, align 8, !tbaa !56
  br label %141

96:                                               ; preds = %39
  %97 = getelementptr inbounds nuw %struct.PJ_XY, ptr %5, i32 0, i32 1
  %98 = load double, ptr %97, align 8, !tbaa !58
  %99 = load double, ptr %10, align 8, !tbaa !59
  %100 = fmul double %98, %99
  %101 = load double, ptr %8, align 8, !tbaa !59
  %102 = fdiv double %100, %101
  %103 = getelementptr inbounds nuw %struct.PJ_LP, ptr %4, i32 0, i32 1
  store double %102, ptr %103, align 8, !tbaa !60
  %104 = getelementptr inbounds nuw %struct.PJ_LP, ptr %4, i32 0, i32 1
  %105 = load double, ptr %104, align 8, !tbaa !60
  %106 = call double @llvm.fabs.f64(double %105)
  %107 = fcmp oge double %106, 1.000000e+00
  br i1 %107, label %108, label %114

108:                                              ; preds = %96
  %109 = getelementptr inbounds nuw %struct.PJ_LP, ptr %4, i32 0, i32 1
  %110 = load double, ptr %109, align 8, !tbaa !60
  %111 = fcmp ogt double %110, 0.000000e+00
  %112 = select i1 %111, double 0x3FF921FB54442D18, double 0xBFF921FB54442D18
  %113 = getelementptr inbounds nuw %struct.PJ_LP, ptr %4, i32 0, i32 1
  store double %112, ptr %113, align 8, !tbaa !60
  br label %119

114:                                              ; preds = %96
  %115 = getelementptr inbounds nuw %struct.PJ_LP, ptr %4, i32 0, i32 1
  %116 = load double, ptr %115, align 8, !tbaa !60
  %117 = call double @asin(double noundef %116) #8, !tbaa !50
  %118 = getelementptr inbounds nuw %struct.PJ_LP, ptr %4, i32 0, i32 1
  store double %117, ptr %118, align 8, !tbaa !60
  br label %119

119:                                              ; preds = %114, %108
  %120 = load double, ptr %9, align 8, !tbaa !59
  %121 = load double, ptr %8, align 8, !tbaa !59
  %122 = fmul double %120, %121
  %123 = getelementptr inbounds nuw %struct.PJ_XY, ptr %5, i32 0, i32 1
  store double %122, ptr %123, align 8, !tbaa !58
  %124 = load double, ptr %10, align 8, !tbaa !59
  %125 = getelementptr inbounds nuw %struct.PJ_XY, ptr %5, i32 0, i32 0
  %126 = load double, ptr %125, align 8, !tbaa !56
  %127 = fmul double %126, %124
  store double %127, ptr %125, align 8, !tbaa !56
  br label %141

128:                                              ; preds = %39
  %129 = getelementptr inbounds nuw %struct.PJ_LP, ptr %4, i32 0, i32 1
  %130 = load double, ptr %129, align 8, !tbaa !60
  %131 = fsub double %130, 0x3FF921FB54442D18
  store double %131, ptr %129, align 8, !tbaa !60
  br label %141

132:                                              ; preds = %39
  %133 = getelementptr inbounds nuw %struct.PJ_LP, ptr %4, i32 0, i32 1
  %134 = load double, ptr %133, align 8, !tbaa !60
  %135 = fsub double 0x3FF921FB54442D18, %134
  %136 = getelementptr inbounds nuw %struct.PJ_LP, ptr %4, i32 0, i32 1
  store double %135, ptr %136, align 8, !tbaa !60
  %137 = getelementptr inbounds nuw %struct.PJ_XY, ptr %5, i32 0, i32 1
  %138 = load double, ptr %137, align 8, !tbaa !58
  %139 = fneg double %138
  %140 = getelementptr inbounds nuw %struct.PJ_XY, ptr %5, i32 0, i32 1
  store double %139, ptr %140, align 8, !tbaa !58
  br label %141

141:                                              ; preds = %39, %132, %128, %119, %75
  %142 = getelementptr inbounds nuw %struct.PJ_XY, ptr %5, i32 0, i32 0
  %143 = load double, ptr %142, align 8, !tbaa !56
  %144 = getelementptr inbounds nuw %struct.PJ_XY, ptr %5, i32 0, i32 1
  %145 = load double, ptr %144, align 8, !tbaa !58
  %146 = call double @atan2(double noundef %143, double noundef %145) #8, !tbaa !50
  %147 = getelementptr inbounds nuw %struct.PJ_LP, ptr %4, i32 0, i32 0
  store double %146, ptr %147, align 8, !tbaa !62
  br label %148

148:                                              ; preds = %141, %33
  call void @llvm.lifetime.end.p0(i64 8, ptr %10) #8
  call void @llvm.lifetime.end.p0(i64 8, ptr %9) #8
  call void @llvm.lifetime.end.p0(i64 8, ptr %8) #8
  call void @llvm.lifetime.end.p0(i64 8, ptr %7) #8
  %149 = load { double, double }, ptr %4, align 8
  ret { double, double } %149
}