; Function Attrs: mustprogress nofree nounwind willreturn memory(readwrite, inaccessiblemem: write) uwtable
define internal { double, double } @_ZL14gnom_s_inverse5PJ_XYP8PJconsts(double %0, double %1, ptr noundef readonly captures(none) %2) #6 {
  %4 = getelementptr inbounds nuw i8, ptr %2, i64 88
  %5 = load ptr, ptr %4, align 8, !tbaa !3
  %6 = tail call double @hypot(double noundef %0, double noundef %1) #9, !tbaa !42
  %7 = tail call double @atan(double noundef %6) #9, !tbaa !42
  %8 = tail call double @sin(double noundef %7) #9, !tbaa !42
  %9 = fneg double %8
  %10 = tail call double @llvm.fmuladd.f64(double %9, double %8, double 1.000000e+00)
  %11 = tail call double @sqrt(double noundef %10) #9, !tbaa !42
  %12 = tail call double @llvm.fabs.f64(double %6)
  %13 = fcmp ugt double %12, 1.000000e-10
  br i1 %13, label %17, label %14

14:                                               ; preds = %3
  %15 = getelementptr inbounds nuw i8, ptr %2, i64 448
  %16 = load double, ptr %15, align 8, !tbaa !37
  br label %62

17:                                               ; preds = %3
  %18 = getelementptr inbounds nuw i8, ptr %5, i64 16
  %19 = load i32, ptr %18, align 8, !tbaa !38
  switch i32 %19, label %60 [
    i32 3, label %20
    i32 2, label %42
    i32 1, label %55
    i32 0, label %57
  ]

20:                                               ; preds = %17
  %21 = load double, ptr %5, align 8, !tbaa !43
  %22 = fmul double %1, %8
  %23 = getelementptr inbounds nuw i8, ptr %5, i64 8
  %24 = load double, ptr %23, align 8, !tbaa !44
  %25 = fmul double %22, %24
  %26 = fdiv double %25, %6
  %27 = tail call double @llvm.fmuladd.f64(double %11, double %21, double %26)
  %28 = tail call double @llvm.fabs.f64(double %27)
  %29 = fcmp ult double %28, 1.000000e+00
  br i1 %29, label %33, label %30

30:                                               ; preds = %20
  %31 = fcmp ogt double %27, 0.000000e+00
  %32 = select i1 %31, double 0x3FF921FB54442D18, double 0xBFF921FB54442D18
  br label %35

33:                                               ; preds = %20
  %34 = tail call double @asin(double noundef %27) #9, !tbaa !42
  br label %35

35:                                               ; preds = %33, %30
  %.sroa.4.2 = phi double [ %32, %30 ], [ %34, %33 ]
  %36 = tail call double @sin(double noundef %.sroa.4.2) #9, !tbaa !42
  %37 = fneg double %21
  %38 = tail call double @llvm.fmuladd.f64(double %37, double %36, double %11)
  %39 = fmul double %6, %38
  %40 = fmul double %8, %24
  %41 = fmul double %0, %40
  br label %60

42:                                               ; preds = %17
  %43 = fmul double %1, %8
  %44 = fdiv double %43, %6
  %45 = tail call double @llvm.fabs.f64(double %44)
  %46 = fcmp ult double %45, 1.000000e+00
  br i1 %46, label %50, label %47

47:                                               ; preds = %42
  %48 = fcmp ogt double %44, 0.000000e+00
  %49 = select i1 %48, double 0x3FF921FB54442D18, double 0xBFF921FB54442D18
  br label %52

50:                                               ; preds = %42
  %51 = tail call double @asin(double noundef %44) #9, !tbaa !42
  br label %52

52:                                               ; preds = %50, %47
  %.sroa.4.3 = phi double [ %49, %47 ], [ %51, %50 ]
  %53 = fmul double %6, %11
  %54 = fmul double %0, %8
  br label %60

55:                                               ; preds = %17
  %56 = fadd double %7, 0xBFF921FB54442D18
  br label %60

57:                                               ; preds = %17
  %58 = fsub double 0x3FF921FB54442D18, %7
  %59 = fneg double %1
  br label %60

60:                                               ; preds = %57, %55, %52, %35, %17
  %.sroa.0.0 = phi double [ %0, %17 ], [ %0, %57 ], [ %0, %55 ], [ %54, %52 ], [ %41, %35 ]
  %.sroa.7.0 = phi double [ %1, %17 ], [ %59, %57 ], [ %1, %55 ], [ %53, %52 ], [ %39, %35 ]
  %.sroa.4.1 = phi double [ %7, %17 ], [ %58, %57 ], [ %56, %55 ], [ %.sroa.4.3, %52 ], [ %.sroa.4.2, %35 ]
  %61 = tail call double @atan2(double noundef %.sroa.0.0, double noundef %.sroa.7.0) #9, !tbaa !42
  br label %62

62:                                               ; preds = %60, %14
  %.sroa.4.0 = phi double [ %16, %14 ], [ %.sroa.4.1, %60 ]
  %.sroa.029.0 = phi double [ 0.000000e+00, %14 ], [ %61, %60 ]
  %.fca.0.insert = insertvalue { double, double } poison, double %.sroa.029.0, 0
  %.fca.1.insert = insertvalue { double, double } %.fca.0.insert, double %.sroa.4.0, 1
  ret { double, double } %.fca.1.insert
}